target datalayout = "e-m:e-p270:32:32-p271:32:32-p272:64:64-i64:64-i128:128-f80:128-n8:16:32:64-S128"
target triple = "x86_64-pc-linux-gnu"

%struct.ge25519_p3 = type { [5 x i64], [5 x i64], [5 x i64], [5 x i64] }
%struct.ge25519_p2 = type { [5 x i64], [5 x i64], [5 x i64] }
%struct.ge25519_p1p1 = type { [5 x i64], [5 x i64], [5 x i64], [5 x i64] }

; Function Attrs: alwaysinline nounwind
define internal ptr @memcpy.inline(ptr noalias nonnull %0, ptr noalias nonnull %1, i64 %2) #3 {
  %4 = alloca ptr, align 8
  %5 = alloca ptr, align 8
  %6 = alloca i64, align 8
  store ptr %0, ptr %4, align 8
  store ptr %1, ptr %5, align 8
  store i64 %2, ptr %6, align 8
  %7 = load ptr, ptr %4, align 8
  %8 = load ptr, ptr %5, align 8
  %9 = load i64, ptr %6, align 8
  %10 = load ptr, ptr %4, align 8
  %11 = call i64 @llvm.objectsize.i64.p0(ptr %10, i1 false, i1 true, i1 true)
  %12 = call ptr @__memcpy_chk(ptr noundef %7, ptr noundef %8, i64 noundef %9, i64 noundef %11) #8
  ret ptr %12
}

; Function Attrs: inlinehint nounwind ssp uwtable
define internal void @fe25519_copy(ptr noundef %0, ptr noundef %1) #2 {
  %3 = alloca ptr, align 8
  %4 = alloca ptr, align 8
  store ptr %0, ptr %3, align 8
  store ptr %1, ptr %4, align 8
  %5 = load ptr, ptr %3, align 8
  %6 = load ptr, ptr %4, align 8
  %7 = call ptr @memcpy.inline(ptr noundef %5, ptr noundef %6, i64 noundef 40) #8
  ret void
}

; Function Attrs: nounwind ssp uwtable
define hidden void @_sodium_ge25519_p1p1_to_p3(ptr noundef %0, ptr noundef %1) #0 {
  %3 = alloca ptr, align 8
  %4 = alloca ptr, align 8
  store ptr %0, ptr %3, align 8
  store ptr %1, ptr %4, align 8
  %5 = load ptr, ptr %3, align 8
  %6 = getelementptr inbounds nuw %struct.ge25519_p3, ptr %5, i32 0, i32 0
  %7 = getelementptr inbounds [5 x i64], ptr %6, i64 0, i64 0
  %8 = load ptr, ptr %4, align 8
  %9 = getelementptr inbounds nuw %struct.ge25519_p1p1, ptr %8, i32 0, i32 0
  %10 = getelementptr inbounds [5 x i64], ptr %9, i64 0, i64 0
  %11 = load ptr, ptr %4, align 8
  %12 = getelementptr inbounds nuw %struct.ge25519_p1p1, ptr %11, i32 0, i32 3
  %13 = getelementptr inbounds [5 x i64], ptr %12, i64 0, i64 0
  call void @fe25519_mul(ptr noundef %7, ptr noundef %10, ptr noundef %13)
  %14 = load ptr, ptr %3, align 8
  %15 = getelementptr inbounds nuw %struct.ge25519_p3, ptr %14, i32 0, i32 1
  %16 = getelementptr inbounds [5 x i64], ptr %15, i64 0, i64 0
  %17 = load ptr, ptr %4, align 8
  %18 = getelementptr inbounds nuw %struct.ge25519_p1p1, ptr %17, i32 0, i32 1
  %19 = getelementptr inbounds [5 x i64], ptr %18, i64 0, i64 0
  %20 = load ptr, ptr %4, align 8
  %21 = getelementptr inbounds nuw %struct.ge25519_p1p1, ptr %20, i32 0, i32 2
  %22 = getelementptr inbounds [5 x i64], ptr %21, i64 0, i64 0
  call void @fe25519_mul(ptr noundef %16, ptr noundef %19, ptr noundef %22)
  %23 = load ptr, ptr %3, align 8
  %24 = getelementptr inbounds nuw %struct.ge25519_p3, ptr %23, i32 0, i32 2
  %25 = getelementptr inbounds [5 x i64], ptr %24, i64 0, i64 0
  %26 = load ptr, ptr %4, align 8
  %27 = getelementptr inbounds nuw %struct.ge25519_p1p1, ptr %26, i32 0, i32 2
  %28 = getelementptr inbounds [5 x i64], ptr %27, i64 0, i64 0
  %29 = load ptr, ptr %4, align 8
  %30 = getelementptr inbounds nuw %struct.ge25519_p1p1, ptr %29, i32 0, i32 3
  %31 = getelementptr inbounds [5 x i64], ptr %30, i64 0, i64 0
  call void @fe25519_mul(ptr noundef %25, ptr noundef %28, ptr noundef %31)
  %32 = load ptr, ptr %3, align 8
  %33 = getelementptr inbounds nuw %struct.ge25519_p3, ptr %32, i32 0, i32 3
  %34 = getelementptr inbounds [5 x i64], ptr %33, i64 0, i64 0
  %35 = load ptr, ptr %4, align 8
  %36 = getelementptr inbounds nuw %struct.ge25519_p1p1, ptr %35, i32 0, i32 0
  %37 = getelementptr inbounds [5 x i64], ptr %36, i64 0, i64 0
  %38 = load ptr, ptr %4, align 8
  %39 = getelementptr inbounds nuw %struct.ge25519_p1p1, ptr %38, i32 0, i32 1
  %40 = getelementptr inbounds [5 x i64], ptr %39, i64 0, i64 0
  call void @fe25519_mul(ptr noundef %34, ptr noundef %37, ptr noundef %40)
  ret void
}

; Function Attrs: nounwind ssp uwtable
define hidden void @_sodium_ge25519_p1p1_to_p2(ptr noundef %0, ptr noundef %1) #0 {
  %3 = alloca ptr, align 8
  %4 = alloca ptr, align 8
  store ptr %0, ptr %3, align 8
  store ptr %1, ptr %4, align 8
  %5 = load ptr, ptr %3, align 8
  %6 = getelementptr inbounds nuw %struct.ge25519_p2, ptr %5, i32 0, i32 0
  %7 = getelementptr inbounds [5 x i64], ptr %6, i64 0, i64 0
  %8 = load ptr, ptr %4, align 8
  %9 = getelementptr inbounds nuw %struct.ge25519_p1p1, ptr %8, i32 0, i32 0
  %10 = getelementptr inbounds [5 x i64], ptr %9, i64 0, i64 0
  %11 = load ptr, ptr %4, align 8
  %12 = getelementptr inbounds nuw %struct.ge25519_p1p1, ptr %11, i32 0, i32 3
  %13 = getelementptr inbounds [5 x i64], ptr %12, i64 0, i64 0
  call void @fe25519_mul(ptr noundef %7, ptr noundef %10, ptr noundef %13)
  %14 = load ptr, ptr %3, align 8
  %15 = getelementptr inbounds nuw %struct.ge25519_p2, ptr %14, i32 0, i32 1
  %16 = getelementptr inbounds [5 x i64], ptr %15, i64 0, i64 0
  %17 = load ptr, ptr %4, align 8
  %18 = getelementptr inbounds nuw %struct.ge25519_p1p1, ptr %17, i32 0, i32 1
  %19 = getelementptr inbounds [5 x i64], ptr %18, i64 0, i64 0
  %20 = load ptr, ptr %4, align 8
  %21 = getelementptr inbounds nuw %struct.ge25519_p1p1, ptr %20, i32 0, i32 2
  %22 = getelementptr inbounds [5 x i64], ptr %21, i64 0, i64 0
  call void @fe25519_mul(ptr noundef %16, ptr noundef %19, ptr noundef %22)
  %23 = load ptr, ptr %3, align 8
  %24 = getelementptr inbounds nuw %struct.ge25519_p2, ptr %23, i32 0, i32 2
  %25 = getelementptr inbounds [5 x i64], ptr %24, i64 0, i64 0
  %26 = load ptr, ptr %4, align 8
  %27 = getelementptr inbounds nuw %struct.ge25519_p1p1, ptr %26, i32 0, i32 2
  %28 = getelementptr inbounds [5 x i64], ptr %27, i64 0, i64 0
  %29 = load ptr, ptr %4, align 8
  %30 = getelementptr inbounds nuw %struct.ge25519_p1p1, ptr %29, i32 0, i32 3
  %31 = getelementptr inbounds [5 x i64], ptr %30, i64 0, i64 0
  call void @fe25519_mul(ptr noundef %25, ptr noundef %28, ptr noundef %31)
  ret void
}

; Function Attrs: nounwind ssp uwtable
define internal void @ge25519_p3_to_p2(ptr noundef %0, ptr noundef %1) #0 {
  %3 = alloca ptr, align 8
  %4 = alloca ptr, align 8
  store ptr %0, ptr %3, align 8
  store ptr %1, ptr %4, align 8
  %5 = load ptr, ptr %3, align 8
  %6 = getelementptr inbounds nuw %struct.ge25519_p2, ptr %5, i32 0, i32 0
  %7 = getelementptr inbounds [5 x i64], ptr %6, i64 0, i64 0
  %8 = load ptr, ptr %4, align 8
  %9 = getelementptr inbounds nuw %struct.ge25519_p3, ptr %8, i32 0, i32 0
  %10 = getelementptr inbounds [5 x i64], ptr %9, i64 0, i64 0
  call void @fe25519_copy(ptr noundef %7, ptr noundef %10)
  %11 = load ptr, ptr %3, align 8
  %12 = getelementptr inbounds nuw %struct.ge25519_p2, ptr %11, i32 0, i32 1
  %13 = getelementptr inbounds [5 x i64], ptr %12, i64 0, i64 0
  %14 = load ptr, ptr %4, align 8
  %15 = getelementptr inbounds nuw %struct.ge25519_p3, ptr %14, i32 0, i32 1
  %16 = getelementptr inbounds [5 x i64], ptr %15, i64 0, i64 0
  call void @fe25519_copy(ptr noundef %13, ptr noundef %16)
  %17 = load ptr, ptr %3, align 8
  %18 = getelementptr inbounds nuw %struct.ge25519_p2, ptr %17, i32 0, i32 2
  %19 = getelementptr inbounds [5 x i64], ptr %18, i64 0, i64 0
  %20 = load ptr, ptr %4, align 8
  %21 = getelementptr inbounds nuw %struct.ge25519_p3, ptr %20, i32 0, i32 2
  %22 = getelementptr inbounds [5 x i64], ptr %21, i64 0, i64 0
  call void @fe25519_copy(ptr noundef %19, ptr noundef %22)
  ret void
}

; Function Attrs: nounwind ssp uwtable
define internal void @ge25519_p3_dbladd(ptr noundef %0, i32 noundef %1, ptr noundef %2) #0 {
  %4 = alloca ptr, align 8
  %5 = alloca i32, align 4
  %6 = alloca ptr, align 8
  %7 = alloca %struct.ge25519_p2, align 8
  %8 = alloca %struct.ge25519_p1p1, align 8
  %9 = alloca i32, align 4
  store ptr %0, ptr %4, align 8
  store i32 %1, ptr %5, align 4
  store ptr %2, ptr %6, align 8
  call void @llvm.lifetime.start.p0(i64 120, ptr %7) #8
  call void @llvm.lifetime.start.p0(i64 160, ptr %8) #8
  call void @llvm.lifetime.start.p0(i64 4, ptr %9) #8
  %10 = load ptr, ptr %4, align 8
  call void @ge25519_p3_to_p2(ptr noundef %7, ptr noundef %10)
  store i32 0, ptr %9, align 4
  br label %11

11:                                               ; preds = %16, %3
  %12 = load i32, ptr %9, align 4
  %13 = load i32, ptr %5, align 4
  %14 = icmp slt i32 %12, %13
  br i1 %14, label %15, label %19

15:                                               ; preds = %11
  call void @ge25519_p2_dbl(ptr noundef %8, ptr noundef %7)
  call void @_sodium_ge25519_p1p1_to_p2(ptr noundef %7, ptr noundef %8)
  br label %16

16:                                               ; preds = %15
  %17 = load i32, ptr %9, align 4
  %18 = add i32 %17, 1
  store i32 %18, ptr %9, align 4
  br label %11, !llvm.loop !41

19:                                               ; preds = %11
  %20 = load ptr, ptr %4, align 8
  call void @_sodium_ge25519_p1p1_to_p3(ptr noundef %20, ptr noundef %8)
  %21 = load ptr, ptr %4, align 8
  %22 = load ptr, ptr %4, align 8
  %23 = load ptr, ptr %6, align 8
  call void @_sodium_ge25519_p3_add(ptr noundef %21, ptr noundef %22, ptr noundef %23)
  call void @llvm.lifetime.end.p0(i64 4, ptr %9) #8
  call void @llvm.lifetime.end.p0(i64 160, ptr %8) #8
  call void @llvm.lifetime.end.p0(i64 120, ptr %7) #8
  ret void
}