; Function Attrs: nofree norecurse nosync nounwind ssp memory(argmem: readwrite) uwtable
define internal fastcc void @ge25519_p3_dbladd(ptr noundef nonnull captures(none) %0, i32 noundef range(i32 6, 127) %1, ptr noundef nonnull readonly captures(none) %2) unnamed_addr #3 {
  %4 = alloca %struct.ge25519_p2, align 8
  %5 = alloca %struct.ge25519_p1p1, align 8
  call void @llvm.lifetime.start.p0(i64 120, ptr nonnull %4) #12
  call void @llvm.lifetime.start.p0(i64 160, ptr nonnull %5) #12
  call void @llvm.memcpy.p0.p0.i64(ptr noundef nonnull align 8 dereferenceable(40) %4, ptr noundef nonnull readonly align 1 dereferenceable(40) %0, i64 noundef 40, i1 noundef false) #12
  %6 = getelementptr inbounds nuw i8, ptr %4, i64 40
  %7 = getelementptr inbounds nuw i8, ptr %0, i64 40
  call void @llvm.memcpy.p0.p0.i64(ptr noundef nonnull align 8 dereferenceable(40) %6, ptr noundef nonnull readonly align 1 dereferenceable(40) %7, i64 noundef 40, i1 noundef false) #12
  %8 = getelementptr inbounds nuw i8, ptr %4, i64 80
  %9 = getelementptr inbounds nuw i8, ptr %0, i64 80
  call void @llvm.memcpy.p0.p0.i64(ptr noundef nonnull align 8 dereferenceable(40) %8, ptr noundef nonnull readonly align 1 dereferenceable(40) %9, i64 noundef 40, i1 noundef false) #12
  %10 = getelementptr inbounds nuw i8, ptr %5, i64 120
  %11 = getelementptr inbounds nuw i8, ptr %5, i64 40
  %12 = getelementptr inbounds nuw i8, ptr %5, i64 80
  br label %13

13:                                               ; preds = %3, %13
  %.07 = phi i32 [ 0, %3 ], [ %14, %13 ]
  call fastcc void @ge25519_p2_dbl(ptr noundef %5, ptr noundef nonnull %4)
  call fastcc void @fe25519_mul(ptr noundef nonnull %4, ptr noundef nonnull readonly %5, ptr noundef nonnull readonly %10)
  call fastcc void @fe25519_mul(ptr noundef nonnull %6, ptr noundef nonnull readonly %11, ptr noundef nonnull readonly %12)
  call fastcc void @fe25519_mul(ptr noundef nonnull %8, ptr noundef nonnull readonly %12, ptr noundef nonnull readonly %10)
  %14 = add nuw nsw i32 %.07, 1
  %exitcond.not = icmp eq i32 %14, %1
  br i1 %exitcond.not, label %15, label %13, !llvm.loop !41

15:                                               ; preds = %13
  call fastcc void @fe25519_mul(ptr noundef nonnull %0, ptr noundef nonnull readonly %5, ptr noundef nonnull readonly %10)
  call fastcc void @fe25519_mul(ptr noundef nonnull %7, ptr noundef nonnull readonly %11, ptr noundef nonnull readonly %12)
  call fastcc void @fe25519_mul(ptr noundef nonnull %9, ptr noundef nonnull readonly %12, ptr noundef nonnull readonly %10)
  %16 = getelementptr inbounds nuw i8, ptr %0, i64 120
  call fastcc void @fe25519_mul(ptr noundef nonnull %16, ptr noundef nonnull readonly %5, ptr noundef nonnull readonly %11)
  tail call void @_sodium_ge25519_p3_add(ptr noundef nonnull %0, ptr noundef nonnull %0, ptr noundef nonnull %2)
  call void @llvm.lifetime.end.p0(i64 160, ptr nonnull %5) #12
  call void @llvm.lifetime.end.p0(i64 120, ptr nonnull %4) #12
  ret void
}